; Function Attrs: mustprogress nofree norecurse nosync nounwind willreturn memory(read, inaccessiblemem: none) uwtable
define dso_local range(i64 0, 2) i64 @macaddr_le(ptr noundef readonly captures(none) %0) local_unnamed_addr #4 {
  %2 = getelementptr inbounds nuw i8, ptr %0, i64 32
  %3 = load i64, ptr %2, align 8
  %4 = inttoptr i64 %3 to ptr
  %5 = getelementptr inbounds nuw i8, ptr %0, i64 48
  %6 = load i64, ptr %5, align 8
  %7 = inttoptr i64 %6 to ptr
  %8 = load i8, ptr %4, align 1
  %9 = zext i8 %8 to i64
  %10 = shl nuw nsw i64 %9, 16
  %11 = getelementptr inbounds nuw i8, ptr %4, i64 1
  %12 = load i8, ptr %11, align 1
  %13 = zext i8 %12 to i64
  %14 = shl nuw nsw i64 %13, 8
  %15 = or disjoint i64 %14, %10
  %16 = getelementptr inbounds nuw i8, ptr %4, i64 2
  %17 = load i8, ptr %16, align 1
  %18 = zext i8 %17 to i64
  %19 = or disjoint i64 %15, %18
  %20 = load i8, ptr %7, align 1
  %21 = zext i8 %20 to i64
  %22 = shl nuw nsw i64 %21, 16
  %23 = getelementptr inbounds nuw i8, ptr %7, i64 1
  %24 = load i8, ptr %23, align 1
  %25 = zext i8 %24 to i64
  %26 = shl nuw nsw i64 %25, 8
  %27 = or disjoint i64 %26, %22
  %28 = getelementptr inbounds nuw i8, ptr %7, i64 2
  %29 = load i8, ptr %28, align 1
  %30 = zext i8 %29 to i64
  %31 = or disjoint i64 %27, %30
  %32 = icmp samesign ult i64 %19, %31
  br i1 %32, label %macaddr_cmp_internal.exit, label %33

33:                                               ; preds = %1
  %34 = icmp samesign ugt i64 %19, %31
  br i1 %34, label %macaddr_cmp_internal.exit, label %35

35:                                               ; preds = %33
  %36 = getelementptr inbounds nuw i8, ptr %4, i64 3
  %37 = load i8, ptr %36, align 1
  %38 = zext i8 %37 to i64
  %39 = shl nuw nsw i64 %38, 16
  %40 = getelementptr inbounds nuw i8, ptr %4, i64 4
  %41 = load i8, ptr %40, align 1
  %42 = zext i8 %41 to i64
  %43 = shl nuw nsw i64 %42, 8
  %44 = or disjoint i64 %43, %39
  %45 = getelementptr inbounds nuw i8, ptr %4, i64 5
  %46 = load i8, ptr %45, align 1
  %47 = zext i8 %46 to i64
  %48 = or disjoint i64 %44, %47
  %49 = getelementptr inbounds nuw i8, ptr %7, i64 3
  %50 = load i8, ptr %49, align 1
  %51 = zext i8 %50 to i64
  %52 = shl nuw nsw i64 %51, 16
  %53 = getelementptr inbounds nuw i8, ptr %7, i64 4
  %54 = load i8, ptr %53, align 1
  %55 = zext i8 %54 to i64
  %56 = shl nuw nsw i64 %55, 8
  %57 = or disjoint i64 %56, %52
  %58 = getelementptr inbounds nuw i8, ptr %7, i64 5
  %59 = load i8, ptr %58, align 1
  %60 = zext i8 %59 to i64
  %61 = or disjoint i64 %57, %60
  %62 = icmp samesign ult i64 %48, %61
  br i1 %62, label %macaddr_cmp_internal.exit, label %63

63:                                               ; preds = %35
  %64 = icmp samesign ule i64 %48, %61
  %65 = zext i1 %64 to i64
  br label %macaddr_cmp_internal.exit

macaddr_cmp_internal.exit:                        ; preds = %1, %33, %35, %63
  %.0.i = phi i64 [ 1, %1 ], [ 0, %33 ], [ 1, %35 ], [ %65, %63 ]
  ret i64 %.0.i
}